target datalayout = "e-m:e-p270:32:32-p271:32:32-p272:64:64-i64:64-i128:128-f80:128-n8:16:32:64-S128"
target triple = "x86_64-pc-linux-gnu"

%class.cmUVPipeBuffer = type { %"struct.cm::uv_pipe_ptr", %"class.std::vector", %"class.std::function", %"class.std::function.0" }
%"struct.cm::uv_pipe_ptr" = type { %"class.cm::uv_handle_ptr_" }
%"class.cm::uv_handle_ptr_" = type { %"class.cm::uv_handle_ptr_base_" }
%"class.cm::uv_handle_ptr_base_" = type { %"class.std::shared_ptr" }
%"class.std::shared_ptr" = type { %"class.std::__shared_ptr" }
%"class.std::__shared_ptr" = type { ptr, %"class.std::__shared_count" }
%"class.std::__shared_count" = type { ptr }
%"class.std::vector" = type { %"struct.std::_Vector_base" }
%"struct.std::_Vector_base" = type { %"struct.std::_Vector_base<char, std::allocator<char>>::_Vector_impl" }
%"struct.std::_Vector_base<char, std::allocator<char>>::_Vector_impl" = type { %"struct.std::_Vector_base<char, std::allocator<char>>::_Vector_impl_data" }
%"struct.std::_Vector_base<char, std::allocator<char>>::_Vector_impl_data" = type { ptr, ptr, ptr }
%"class.std::function" = type { %"class.std::_Function_base", ptr }
%"class.std::_Function_base" = type { %"union.std::_Any_data", ptr }
%"union.std::_Any_data" = type { %"union.std::_Nocopy_types" }
%"union.std::_Nocopy_types" = type { { i64, i64 } }
%"class.std::function.0" = type { %"class.std::_Function_base", ptr }
%class.cmUVReadOnlyProcess = type { %"struct.cmUVReadOnlyProcess::SetupT", i8, i8, %"class.std::function.14", %"class.std::vector.16", %"struct.std::array", %struct.uv_process_options_s, %"struct.cm::uv_process_ptr", %class.cmUVPipeBuffer, %class.cmUVPipeBuffer }
%"struct.cmUVReadOnlyProcess::SetupT" = type <{ %"class.std::__cxx11::basic_string", %"class.std::vector.9", ptr, i8, [7 x i8] }>
%"class.std::__cxx11::basic_string" = type { %"struct.std::__cxx11::basic_string<char>::_Alloc_hider", i64, %union.anon.8 }
%"struct.std::__cxx11::basic_string<char>::_Alloc_hider" = type { ptr }
%union.anon.8 = type { i64, [8 x i8] }
%"class.std::vector.9" = type { %"struct.std::_Vector_base.10" }
%"struct.std::_Vector_base.10" = type { %"struct.std::_Vector_base<std::__cxx11::basic_string<char>, std::allocator<std::__cxx11::basic_string<char>>>::_Vector_impl" }
%"struct.std::_Vector_base<std::__cxx11::basic_string<char>, std::allocator<std::__cxx11::basic_string<char>>>::_Vector_impl" = type { %"struct.std::_Vector_base<std::__cxx11::basic_string<char>, std::allocator<std::__cxx11::basic_string<char>>>::_Vector_impl_data" }
%"struct.std::_Vector_base<std::__cxx11::basic_string<char>, std::allocator<std::__cxx11::basic_string<char>>>::_Vector_impl_data" = type { ptr, ptr, ptr }
%"class.std::function.14" = type { %"class.std::_Function_base", ptr }
%"class.std::vector.16" = type { %"struct.std::_Vector_base.17" }
%"struct.std::_Vector_base.17" = type { %"struct.std::_Vector_base<const char *, std::allocator<const char *>>::_Vector_impl" }
%"struct.std::_Vector_base<const char *, std::allocator<const char *>>::_Vector_impl" = type { %"struct.std::_Vector_base<const char *, std::allocator<const char *>>::_Vector_impl_data" }
%"struct.std::_Vector_base<const char *, std::allocator<const char *>>::_Vector_impl_data" = type { ptr, ptr, ptr }
%"struct.std::array" = type { [3 x %struct.uv_stdio_container_s] }
%struct.uv_stdio_container_s = type { i32, %union.anon.21 }
%union.anon.21 = type { ptr }
%struct.uv_process_options_s = type { ptr, ptr, ptr, ptr, ptr, i32, i32, ptr, i32, i32, ptr, i64 }
%"struct.cm::uv_process_ptr" = type { %"class.cm::uv_handle_ptr_.22" }
%"class.cm::uv_handle_ptr_.22" = type { %"class.cm::uv_handle_ptr_base_.23" }
%"class.cm::uv_handle_ptr_base_.23" = type { %"class.std::shared_ptr.24" }
%"class.std::shared_ptr.24" = type { %"class.std::__shared_ptr.25" }
%"class.std::__shared_ptr.25" = type { ptr, %"class.std::__shared_count" }

; Function Attrs: mustprogress nounwind uwtable
define linkonce_odr dso_local noundef zeroext i1 @_ZNKSt14_Function_base8_M_emptyEv(ptr noundef nonnull align 8 dereferenceable(24) %0) #2 comdat align 2 {
  %2 = alloca ptr, align 8
  store ptr %0, ptr %2, align 8
  %3 = load ptr, ptr %2, align 8
  %4 = getelementptr inbounds %"class.std::_Function_base", ptr %3, i32 0, i32 1
  %5 = load ptr, ptr %4, align 8
  %6 = icmp ne ptr %5, null
  %7 = xor i1 %6, true
  ret i1 %7
}

; Function Attrs: mustprogress uwtable
define linkonce_odr dso_local void @_ZNKSt8functionIFvvEEclEv(ptr noundef nonnull align 8 dereferenceable(32) %0) #0 comdat align 2 {
  %2 = alloca ptr, align 8
  store ptr %0, ptr %2, align 8
  %3 = load ptr, ptr %2, align 8
  %4 = call noundef zeroext i1 @_ZNKSt14_Function_base8_M_emptyEv(ptr noundef nonnull align 8 dereferenceable(24) %3)
  br i1 %4, label %5, label %6

5:                                                ; preds = %1
  call void @_ZSt25__throw_bad_function_callv() #14
  unreachable

6:                                                ; preds = %1
  %7 = getelementptr inbounds %"class.std::function.14", ptr %3, i32 0, i32 1
  %8 = load ptr, ptr %7, align 8
  %9 = getelementptr inbounds %"class.std::_Function_base", ptr %3, i32 0, i32 0
  call void %8(ptr noundef nonnull align 8 dereferenceable(16) %9)
  ret void
}

; Function Attrs: mustprogress uwtable
define linkonce_odr dso_local noundef ptr @_ZNK14cmUVPipeBuffer7uv_pipeEv(ptr noundef nonnull align 8 dereferenceable(104) %0) #0 comdat align 2 {
  %2 = alloca ptr, align 8
  store ptr %0, ptr %2, align 8
  %3 = load ptr, ptr %2, align 8
  %4 = getelementptr inbounds %class.cmUVPipeBuffer, ptr %3, i32 0, i32 0
  %5 = call noundef ptr @_ZNK2cm19uv_handle_ptr_base_I9uv_pipe_sE3getEv(ptr noundef nonnull align 8 dereferenceable(16) %4)
  ret ptr %5
}

; Function Attrs: mustprogress uwtable
define dso_local void @_ZN19cmUVReadOnlyProcess11UVTryFinishEv(ptr noundef nonnull align 8 dereferenceable(488) %0) #0 align 2 {
  %2 = alloca ptr, align 8
  store ptr %0, ptr %2, align 8
  %3 = load ptr, ptr %2, align 8
  %4 = getelementptr inbounds %class.cmUVReadOnlyProcess, ptr %3, i32 0, i32 7
  %5 = call noundef ptr @_ZNK2cm19uv_handle_ptr_base_I12uv_process_sE3getEv(ptr noundef nonnull align 8 dereferenceable(16) %4)
  %6 = icmp ne ptr %5, null
  br i1 %6, label %15, label %7

7:                                                ; preds = %1
  %8 = getelementptr inbounds %class.cmUVReadOnlyProcess, ptr %3, i32 0, i32 8
  %9 = call noundef ptr @_ZNK14cmUVPipeBuffer7uv_pipeEv(ptr noundef nonnull align 8 dereferenceable(104) %8)
  %10 = icmp ne ptr %9, null
  br i1 %10, label %15, label %11

11:                                               ; preds = %7
  %12 = getelementptr inbounds %class.cmUVReadOnlyProcess, ptr %3, i32 0, i32 9
  %13 = call noundef ptr @_ZNK14cmUVPipeBuffer7uv_pipeEv(ptr noundef nonnull align 8 dereferenceable(104) %12)
  %14 = icmp ne ptr %13, null
  br i1 %14, label %15, label %16

15:                                               ; preds = %11, %7, %1
  br label %19

16:                                               ; preds = %11
  %17 = getelementptr inbounds %class.cmUVReadOnlyProcess, ptr %3, i32 0, i32 2
  store i8 1, ptr %17, align 1
  %18 = getelementptr inbounds %class.cmUVReadOnlyProcess, ptr %3, i32 0, i32 3
  call void @_ZNKSt8functionIFvvEEclEv(ptr noundef nonnull align 8 dereferenceable(32) %18)
  br label %19

19:                                               ; preds = %16, %15
  ret void
}