; Function Attrs: mustprogress uwtable
define dso_local void @_ZN19cmUVReadOnlyProcess11UVTryFinishEv(ptr noundef nonnull align 8 dereferenceable(488) %0) local_unnamed_addr #0 align 2 {
  %2 = getelementptr inbounds i8, ptr %0, i64 264
  %3 = tail call noundef ptr @_ZNK2cm19uv_handle_ptr_base_I12uv_process_sE3getEv(ptr noundef nonnull align 8 dereferenceable(16) %2)
  %.not = icmp eq ptr %3, null
  br i1 %.not, label %4, label %18

4:                                                ; preds = %1
  %5 = getelementptr inbounds i8, ptr %0, i64 280
  %6 = tail call noundef ptr @_ZNK2cm19uv_handle_ptr_base_I9uv_pipe_sE3getEv(ptr noundef nonnull align 8 dereferenceable(16) %5)
  %.not1 = icmp eq ptr %6, null
  br i1 %.not1, label %7, label %18

7:                                                ; preds = %4
  %8 = getelementptr inbounds i8, ptr %0, i64 384
  %9 = tail call noundef ptr @_ZNK2cm19uv_handle_ptr_base_I9uv_pipe_sE3getEv(ptr noundef nonnull align 8 dereferenceable(16) %8)
  %.not2 = icmp eq ptr %9, null
  br i1 %.not2, label %10, label %18

10:                                               ; preds = %7
  %11 = getelementptr inbounds i8, ptr %0, i64 73
  store i8 1, ptr %11, align 1
  %12 = getelementptr inbounds i8, ptr %0, i64 96
  %13 = load ptr, ptr %12, align 8
  %.not.i.i = icmp eq ptr %13, null
  br i1 %.not.i.i, label %14, label %_ZNKSt8functionIFvvEEclEv.exit

14:                                               ; preds = %10
  tail call void @_ZSt25__throw_bad_function_callv() #21
  unreachable

_ZNKSt8functionIFvvEEclEv.exit:                   ; preds = %10
  %15 = getelementptr inbounds i8, ptr %0, i64 80
  %16 = getelementptr inbounds i8, ptr %0, i64 104
  %17 = load ptr, ptr %16, align 8
  tail call void %17(ptr noundef nonnull align 8 dereferenceable(16) %15)
  br label %18

18:                                               ; preds = %1, %4, %7, %_ZNKSt8functionIFvvEEclEv.exit
  ret void
}